; Function Attrs: mustprogress uwtable
define void @_ZN7rocksdb28ChangeCompactionStyleCommand21OverrideBaseCFOptionsEPNS_19ColumnFamilyOptionsE(ptr noundef nonnull align 8 dereferenceable(2216) %0, ptr noundef %1) unnamed_addr #5 align 2 {
  tail call void @_ZN7rocksdb10LDBCommand21OverrideBaseCFOptionsEPNS_19ColumnFamilyOptionsE(ptr noundef nonnull align 8 dereferenceable(2208) %0, ptr noundef %1)
  %3 = getelementptr inbounds nuw i8, ptr %0, i64 2208
  %4 = load i32, ptr %3, align 8, !tbaa !1360
  %5 = icmp eq i32 %4, 0
  %6 = getelementptr inbounds nuw i8, ptr %0, i64 2212
  %7 = load i32, ptr %6, align 4
  %8 = icmp eq i32 %7, 1
  %or.cond = select i1 %5, i1 %8, i1 false
  br i1 %or.cond, label %9, label %15

9:                                                ; preds = %2
  %10 = getelementptr inbounds nuw i8, ptr %1, i64 744
  store i8 1, ptr %10, align 8, !tbaa !580
  %11 = getelementptr inbounds nuw i8, ptr %1, i64 152
  store i64 2147483647, ptr %11, align 8, !tbaa !597
  %12 = getelementptr inbounds nuw i8, ptr %1, i64 160
  store i32 1, ptr %12, align 8, !tbaa !1402
  %13 = getelementptr inbounds nuw i8, ptr %1, i64 728
  store i64 2147483647, ptr %13, align 8, !tbaa !1184
  %14 = getelementptr inbounds nuw i8, ptr %1, i64 168
  store double 1.000000e+00, ptr %14, align 8, !tbaa !1185
  br label %15

15:                                               ; preds = %9, %2
  ret void
}